target datalayout = "e-m:e-p270:32:32-p271:32:32-p272:64:64-i64:64-i128:128-f80:128-n8:16:32:64-S128"
target triple = "x86_64-pc-linux-gnu"

%"class.Imf_3_4::Header" = type <{ %"class.std::map.3", i8, [7 x i8] }>
%"class.std::map.3" = type { %"class.std::_Rb_tree.4" }
%"class.std::_Rb_tree.4" = type { %"struct.std::_Rb_tree<Imf_3_4::Name, std::pair<const Imf_3_4::Name, Imf_3_4::Attribute *>, std::_Select1st<std::pair<const Imf_3_4::Name, Imf_3_4::Attribute *>>, std::less<Imf_3_4::Name>>::_Rb_tree_impl" }
%"struct.std::_Rb_tree<Imf_3_4::Name, std::pair<const Imf_3_4::Name, Imf_3_4::Attribute *>, std::_Select1st<std::pair<const Imf_3_4::Name, Imf_3_4::Attribute *>>, std::less<Imf_3_4::Name>>::_Rb_tree_impl" = type { [8 x i8], %"struct.std::_Rb_tree_header" }
%"struct.std::_Rb_tree_header" = type { %"struct.std::_Rb_tree_node_base", i64 }
%"struct.std::_Rb_tree_node_base" = type { i32, ptr, ptr, ptr }
%"class.Imath_3_2::Vec2.9" = type { float, float }

; Function Attrs: inlinehint mustprogress nounwind uwtable
define linkonce_odr hidden void @_ZN9Imath_3_24Vec2IfEC2Eff(ptr noundef nonnull align 4 dereferenceable(8) %0, float noundef %1, float noundef %2) unnamed_addr #7 comdat align 2 {
  %4 = alloca ptr, align 8
  %5 = alloca float, align 4
  %6 = alloca float, align 4
  store ptr %0, ptr %4, align 8, !tbaa !43
  store float %1, ptr %5, align 4, !tbaa !45
  store float %2, ptr %6, align 4, !tbaa !45
  %7 = load ptr, ptr %4, align 8
  %8 = getelementptr inbounds nuw %"class.Imath_3_2::Vec2.9", ptr %7, i32 0, i32 0
  %9 = load float, ptr %5, align 4, !tbaa !45
  store float %9, ptr %8, align 4, !tbaa !47
  %10 = getelementptr inbounds nuw %"class.Imath_3_2::Vec2.9", ptr %7, i32 0, i32 1
  %11 = load float, ptr %6, align 4, !tbaa !45
  store float %11, ptr %10, align 4, !tbaa !49
  ret void
}

; Function Attrs: mustprogress uwtable
define void @_ZN7Imf_3_418loadDeepTiledImageERKNSt7__cxx1112basic_stringIcSt11char_traitsIcESaIcEEERNS_9DeepImageE(ptr noundef nonnull align 8 dereferenceable(32) %0, ptr noundef nonnull align 8 dereferenceable(104) %1) #6 personality ptr @__gxx_personality_v0 {
  %3 = alloca ptr, align 8
  %4 = alloca ptr, align 8
  %5 = alloca %"class.Imf_3_4::Header", align 8
  %6 = alloca %"class.Imath_3_2::Vec2.9", align 4
  %7 = alloca ptr, align 8
  %8 = alloca i32, align 4
  store ptr %0, ptr %3, align 8, !tbaa !8
  store ptr %1, ptr %4, align 8, !tbaa !14
  call void @llvm.lifetime.start.p0(i64 56, ptr %5) #3
  call void @llvm.lifetime.start.p0(i64 8, ptr %6) #3
  call void @_ZN9Imath_3_24Vec2IfEC2Eff(ptr noundef nonnull align 4 dereferenceable(8) %6, float noundef 0.000000e+00, float noundef 0.000000e+00) #3
  call void @_ZN7Imf_3_46HeaderC1EiifRKN9Imath_3_24Vec2IfEEfNS_9LineOrderENS_11CompressionE(ptr noundef nonnull align 8 dereferenceable(49) %5, i32 noundef 64, i32 noundef 64, float noundef 1.000000e+00, ptr noundef nonnull align 4 dereferenceable(8) %6, float noundef 1.000000e+00, i32 noundef 0, i32 noundef 3)
  call void @llvm.lifetime.end.p0(i64 8, ptr %6) #3
  %9 = load ptr, ptr %3, align 8, !tbaa !8
  %10 = load ptr, ptr %4, align 8, !tbaa !14
  invoke void @_ZN7Imf_3_418loadDeepTiledImageERKNSt7__cxx1112basic_stringIcSt11char_traitsIcESaIcEEERNS_6HeaderERNS_9DeepImageE(ptr noundef nonnull align 8 dereferenceable(32) %9, ptr noundef nonnull align 8 dereferenceable(49) %5, ptr noundef nonnull align 8 dereferenceable(104) %10)
          to label %11 unwind label %12

11:                                               ; preds = %2
  call void @_ZN7Imf_3_46HeaderD1Ev(ptr noundef nonnull align 8 dereferenceable(49) %5) #3
  call void @llvm.lifetime.end.p0(i64 56, ptr %5) #3
  ret void

12:                                               ; preds = %2
  %13 = landingpad { ptr, i32 }
          cleanup
  %14 = extractvalue { ptr, i32 } %13, 0
  store ptr %14, ptr %7, align 8
  %15 = extractvalue { ptr, i32 } %13, 1
  store i32 %15, ptr %8, align 4
  call void @_ZN7Imf_3_46HeaderD1Ev(ptr noundef nonnull align 8 dereferenceable(49) %5) #3
  call void @llvm.lifetime.end.p0(i64 56, ptr %5) #3
  br label %16

16:                                               ; preds = %12
  %17 = load ptr, ptr %7, align 8
  %18 = load i32, ptr %8, align 4
  %19 = insertvalue { ptr, i32 } poison, ptr %17, 0
  %20 = insertvalue { ptr, i32 } %19, i32 %18, 1
  resume { ptr, i32 } %20
}